; Function Attrs: mustprogress nofree norecurse nosync nounwind willreturn memory(argmem: read) uwtable
define dso_local { double, double } @_ZNK7msdfgen16QuadraticSegment15directionChangeEd(ptr nocapture noundef nonnull readonly align 8 dereferenceable(64) %this, double %param) unnamed_addr #7 align 2 {
entry:
  %p = getelementptr inbounds i8, ptr %this, i64 16
  %arrayidx = getelementptr inbounds i8, ptr %this, i64 48
  %arrayidx5 = getelementptr inbounds i8, ptr %this, i64 32
  %0 = load <2 x double>, ptr %arrayidx, align 8
  %1 = load <2 x double>, ptr %arrayidx5, align 8
  %2 = fsub <2 x double> %0, %1
  %3 = load <2 x double>, ptr %p, align 8
  %4 = fsub <2 x double> %1, %3
  %5 = fsub <2 x double> %2, %4
  %6 = extractelement <2 x double> %5, i64 0
  %.fca.0.insert.i7 = insertvalue { double, double } poison, double %6, 0
  %7 = extractelement <2 x double> %5, i64 1
  %.fca.1.insert.i8 = insertvalue { double, double } %.fca.0.insert.i7, double %7, 1
  ret { double, double } %.fca.1.insert.i8
}